; Function Attrs: mustprogress nofree norecurse nosync nounwind memory(readwrite, inaccessiblemem: none) uwtable
define hidden void @_ZN4cvc58internal6theory5arith6linear23SumOfInfeasibilitiesSPD11qeSwapRangeEjjj(ptr nocapture noundef nonnull readonly align 8 dereferenceable(800) %this, i32 noundef %N, i32 noundef %r, i32 noundef %s) local_unnamed_addr #7 align 2 {
entry:
  %cmp5.not = icmp eq i32 %N, 0
  br i1 %cmp5.not, label %for.end, label %for.body.lr.ph

for.body.lr.ph:                                   ; preds = %entry
  %d_qeConflict = getelementptr inbounds i8, ptr %this, i64 592
  %wide.trip.count = zext i32 %N to i64
  br label %for.body

for.body:                                         ; preds = %for.body.lr.ph, %for.body
  %indvars.iv = phi i64 [ 0, %for.body.lr.ph ], [ %indvars.iv.next, %for.body ]
  %0 = trunc i64 %indvars.iv to i32
  %add = add i32 %0, %r
  %conv = zext i32 %add to i64
  %1 = load ptr, ptr %d_qeConflict, align 8
  %add.ptr.i = getelementptr inbounds i32, ptr %1, i64 %conv
  %add3 = add i32 %0, %s
  %conv4 = zext i32 %add3 to i64
  %add.ptr.i4 = getelementptr inbounds i32, ptr %1, i64 %conv4
  %2 = load i32, ptr %add.ptr.i, align 4
  %3 = load i32, ptr %add.ptr.i4, align 4
  store i32 %3, ptr %add.ptr.i, align 4
  store i32 %2, ptr %add.ptr.i4, align 4
  %indvars.iv.next = add nuw nsw i64 %indvars.iv, 1
  %exitcond.not = icmp eq i64 %indvars.iv.next, %wide.trip.count
  br i1 %exitcond.not, label %for.end, label %for.body, !llvm.loop !29

for.end:                                          ; preds = %for.body, %entry
  ret void
}